; Function Attrs: mustprogress uwtable
define hidden void @_ZN11opencv_test29VideoCapture_Reading_ReadFile12PerfTestBodyEv(ptr noundef nonnull align 8 dereferenceable(256) %0) unnamed_addr #4 align 2 personality ptr @__gxx_personality_v0 {
  %2 = alloca %"class.std::__cxx11::basic_string", align 8
  %3 = alloca %"class.cv::VideoCapture", align 8
  call void @llvm.lifetime.start.p0(i64 32, ptr nonnull %2) #31
  %4 = getelementptr inbounds nuw i8, ptr %0, i64 248
  %5 = tail call noundef nonnull align 8 dereferenceable(32) ptr @_ZNK7testing18WithParamInterfaceINSt7__cxx1112basic_stringIcSt11char_traitsIcESaIcEEEE8GetParamEv(ptr noundef nonnull align 8 dereferenceable(8) %4)
  call void @_ZN4perf8TestBase11getDataPathERKNSt7__cxx1112basic_stringIcSt11char_traitsIcESaIcEEE(ptr dead_on_unwind nonnull writable sret(%"class.std::__cxx11::basic_string") align 8 %2, ptr noundef nonnull align 8 dereferenceable(32) %5)
  call void @llvm.lifetime.start.p0(i64 48, ptr nonnull %3) #31
  invoke void @_ZN2cv12VideoCaptureC1Ev(ptr noundef nonnull align 8 dereferenceable(41) %3)
          to label %.preheader unwind label %14

.preheader:                                       ; preds = %1, %13
  %6 = invoke noundef zeroext i1 @_ZN4perf8TestBase4nextEv(ptr noundef nonnull align 8 dereferenceable(248) %0)
          to label %7 unwind label %16

7:                                                ; preds = %.preheader
  br i1 %6, label %8, label %.critedge

8:                                                ; preds = %7
  %9 = invoke noundef zeroext i1 @_ZN4perf8TestBase10startTimerEv(ptr noundef nonnull align 8 dereferenceable(248) %0)
          to label %10 unwind label %16

10:                                               ; preds = %8
  br i1 %9, label %11, label %.critedge

11:                                               ; preds = %10
  %12 = invoke noundef zeroext i1 @_ZN2cv12VideoCapture4openERKNSt7__cxx1112basic_stringIcSt11char_traitsIcESaIcEEEi(ptr noundef nonnull align 8 dereferenceable(41) %3, ptr noundef nonnull align 8 dereferenceable(32) %2, i32 noundef 0)
          to label %13 unwind label %16

13:                                               ; preds = %11
  invoke void @_ZN4perf8TestBase9stopTimerEv(ptr noundef nonnull align 8 dereferenceable(248) %0)
          to label %.preheader unwind label %16, !llvm.loop !223

14:                                               ; preds = %1
  %15 = landingpad { ptr, i32 }
          cleanup
  br label %25

16:                                               ; preds = %13, %11, %8, %.preheader
  %17 = landingpad { ptr, i32 }
          cleanup
  call void @_ZN2cv12VideoCaptureD1Ev(ptr noundef nonnull align 8 dereferenceable(41) %3) #31
  br label %25

.critedge:                                        ; preds = %7, %10
  %18 = getelementptr inbounds nuw i8, ptr %0, i64 232
  store i8 1, ptr %18, align 8, !tbaa !180
  call void @_ZN2cv12VideoCaptureD1Ev(ptr noundef nonnull align 8 dereferenceable(41) %3) #31
  call void @llvm.lifetime.end.p0(i64 48, ptr nonnull %3) #31
  %19 = load ptr, ptr %2, align 8, !tbaa !55
  %20 = getelementptr inbounds nuw i8, ptr %2, i64 16
  %21 = icmp eq ptr %19, %20
  br i1 %21, label %_ZNKSt7__cxx1112basic_stringIcSt11char_traitsIcESaIcEE11_M_is_localEv.exit.thread.i.i, label %_ZNKSt7__cxx1112basic_stringIcSt11char_traitsIcESaIcEE11_M_is_localEv.exit.i.i

_ZNKSt7__cxx1112basic_stringIcSt11char_traitsIcESaIcEE11_M_is_localEv.exit.thread.i.i: ; preds = %.critedge
  %22 = getelementptr inbounds nuw i8, ptr %2, i64 8
  %23 = load i64, ptr %22, align 8, !tbaa !56
  %24 = icmp ult i64 %23, 16
  call void @llvm.assume(i1 %24)
  br label %_ZNSt7__cxx1112basic_stringIcSt11char_traitsIcESaIcEED2Ev.exit

_ZNKSt7__cxx1112basic_stringIcSt11char_traitsIcESaIcEE11_M_is_localEv.exit.i.i: ; preds = %.critedge
  call void @_ZdlPv(ptr noundef %19) #35
  br label %_ZNSt7__cxx1112basic_stringIcSt11char_traitsIcESaIcEED2Ev.exit

_ZNSt7__cxx1112basic_stringIcSt11char_traitsIcESaIcEED2Ev.exit: ; preds = %_ZNKSt7__cxx1112basic_stringIcSt11char_traitsIcESaIcEE11_M_is_localEv.exit.thread.i.i, %_ZNKSt7__cxx1112basic_stringIcSt11char_traitsIcESaIcEE11_M_is_localEv.exit.i.i
  call void @llvm.lifetime.end.p0(i64 32, ptr nonnull %2) #31
  ret void

25:                                               ; preds = %16, %14
  %.pn = phi { ptr, i32 } [ %17, %16 ], [ %15, %14 ]
  call void @llvm.lifetime.end.p0(i64 48, ptr nonnull %3) #31
  %26 = load ptr, ptr %2, align 8, !tbaa !55
  %27 = getelementptr inbounds nuw i8, ptr %2, i64 16
  %28 = icmp eq ptr %26, %27
  br i1 %28, label %_ZNKSt7__cxx1112basic_stringIcSt11char_traitsIcESaIcEE11_M_is_localEv.exit.thread.i.i5, label %_ZNKSt7__cxx1112basic_stringIcSt11char_traitsIcESaIcEE11_M_is_localEv.exit.i.i4

_ZNKSt7__cxx1112basic_stringIcSt11char_traitsIcESaIcEE11_M_is_localEv.exit.thread.i.i5: ; preds = %25
  %29 = getelementptr inbounds nuw i8, ptr %2, i64 8
  %30 = load i64, ptr %29, align 8, !tbaa !56
  %31 = icmp ult i64 %30, 16
  call void @llvm.assume(i1 %31)
  br label %_ZNSt7__cxx1112basic_stringIcSt11char_traitsIcESaIcEED2Ev.exit6

_ZNKSt7__cxx1112basic_stringIcSt11char_traitsIcESaIcEE11_M_is_localEv.exit.i.i4: ; preds = %25
  call void @_ZdlPv(ptr noundef %26) #35
  br label %_ZNSt7__cxx1112basic_stringIcSt11char_traitsIcESaIcEED2Ev.exit6

_ZNSt7__cxx1112basic_stringIcSt11char_traitsIcESaIcEED2Ev.exit6: ; preds = %_ZNKSt7__cxx1112basic_stringIcSt11char_traitsIcESaIcEE11_M_is_localEv.exit.thread.i.i5, %_ZNKSt7__cxx1112basic_stringIcSt11char_traitsIcESaIcEE11_M_is_localEv.exit.i.i4
  call void @llvm.lifetime.end.p0(i64 32, ptr nonnull %2) #31
  resume { ptr, i32 } %.pn
}